---
triple:          'x86_64-apple-darwin'
binary-path:     '/Users/aiden/MyCppCodeFolder/CSCI110_rep/carMDtest'
relocations:
  - { offsetInCU: 0x301D, offset: 0x301D, size: 0x8, addend: 0x0, symName: __ZNSt3__124__put_character_sequenceB8ue170006IcNS_11char_traitsIcEEEERNS_13basic_ostreamIT_T0_EES7_PKS4_m, symObjAddr: 0x690, symBinAddr: 0x100001540, symSize: 0x1F0 }
  - { offsetInCU: 0x6C85, offset: 0x6C85, size: 0x8, addend: 0x0, symName: __ZNSt3__1lsB8ue170006INS_11char_traitsIcEEEERNS_13basic_ostreamIcT_EES6_PKc, symObjAddr: 0x480, symBinAddr: 0x100001330, symSize: 0x40 }
  - { offsetInCU: 0x6CCB, offset: 0x6CCB, size: 0x8, addend: 0x0, symName: __ZNSt3__14endlB8ue170006IcNS_11char_traitsIcEEEERNS_13basic_ostreamIT_T0_EES7_, symObjAddr: 0x4E0, symBinAddr: 0x100001390, symSize: 0x50 }
  - { offsetInCU: 0x6D0B, offset: 0x6D0B, size: 0x8, addend: 0x0, symName: __ZNSt3__116__pad_and_outputB8ue170006IcNS_11char_traitsIcEEEENS_19ostreambuf_iteratorIT_T0_EES6_PKS4_S8_S8_RNS_8ios_baseES4_, symObjAddr: 0x8D0, symBinAddr: 0x100001780, symSize: 0x220 }
  - { offsetInCU: 0x6DDB, offset: 0x6DDB, size: 0x8, addend: 0x0, symName: __ZNSt3__112__to_addressB8ue170006IKcEEPT_S3_, symObjAddr: 0xDF0, symBinAddr: 0x100001CA0, symSize: 0x10 }
  - { offsetInCU: 0x6E43, offset: 0x6E43, size: 0x8, addend: 0x0, symName: __ZNSt3__19use_facetB8ue170006INS_5ctypeIcEEEERKT_RKNS_6localeE, symObjAddr: 0x1050, symBinAddr: 0x100001F00, symSize: 0x30 }
  - { offsetInCU: 0x7221, offset: 0x7221, size: 0x8, addend: 0x0, symName: __ZNSt3__118__constexpr_strlenB8ue170006EPKc, symObjAddr: 0x10E0, symBinAddr: 0x100001F90, symSize: 0x20 }
  - { offsetInCU: 0x724D, offset: 0x724D, size: 0x8, addend: 0x0, symName: __ZNSt3__1rsB8ue170006IcNS_11char_traitsIcEENS_9allocatorIcEEEERNS_13basic_istreamIT_T0_EES9_RNS_12basic_stringIS6_S7_T1_EE, symObjAddr: 0x1120, symBinAddr: 0x100001FD0, symSize: 0x2E0 }
  - { offsetInCU: 0x7CDD, offset: 0x7CDD, size: 0x8, addend: 0x0, symName: __ZNSt3__112__to_addressB8ue170006I3CarEEPT_S3_, symObjAddr: 0x1D40, symBinAddr: 0x100002BF0, symSize: 0x10 }
  - { offsetInCU: 0x7D12, offset: 0x7D12, size: 0x8, addend: 0x0, symName: __ZNSt3__13maxB8ue170006ImEERKT_S3_S3_, symObjAddr: 0x21C0, symBinAddr: 0x100003070, symSize: 0x30 }
  - { offsetInCU: 0x7D55, offset: 0x7D55, size: 0x8, addend: 0x0, symName: __ZNSt3__13minB8ue170006ImEERKT_S3_S3_, symObjAddr: 0x21F0, symBinAddr: 0x1000030A0, symSize: 0x30 }
  - { offsetInCU: 0x7D98, offset: 0x7D98, size: 0x8, addend: 0x0, symName: __ZNSt3__13minB8ue170006ImNS_6__lessIvvEEEERKT_S5_S5_T0_, symObjAddr: 0x2260, symBinAddr: 0x100003110, symSize: 0x50 }
  - { offsetInCU: 0x7E37, offset: 0x7E37, size: 0x8, addend: 0x0, symName: __ZNSt3__120__throw_length_errorB8ue170006EPKc, symObjAddr: 0x2330, symBinAddr: 0x1000031E0, symSize: 0x70 }
  - { offsetInCU: 0x7E61, offset: 0x7E61, size: 0x8, addend: 0x0, symName: __ZNSt3__13maxB8ue170006ImNS_6__lessIvvEEEERKT_S5_S5_T0_, symObjAddr: 0x2460, symBinAddr: 0x100003310, symSize: 0x50 }
  - { offsetInCU: 0x7EBB, offset: 0x7EBB, size: 0x8, addend: 0x0, symName: __ZNSt3__119__allocate_at_leastB8ue170006INS_9allocatorI3CarEEEENS_19__allocation_resultINS_16allocator_traitsIT_E7pointerEEERS6_m, symObjAddr: 0x25A0, symBinAddr: 0x100003450, symSize: 0x40 }
  - { offsetInCU: 0x7EFE, offset: 0x7EFE, size: 0x8, addend: 0x0, symName: __ZNSt3__117__libcpp_allocateB8ue170006Emm, symObjAddr: 0x2710, symBinAddr: 0x1000035C0, symSize: 0x20 }
  - { offsetInCU: 0x7F3B, offset: 0x7F3B, size: 0x8, addend: 0x0, symName: __ZNSt3__121__libcpp_operator_newB8ue170006IJmEEEPvDpT_, symObjAddr: 0x2730, symBinAddr: 0x1000035E0, symSize: 0x20 }
  - { offsetInCU: 0x7F74, offset: 0x7F74, size: 0x8, addend: 0x0, symName: __ZNSt3__142__uninitialized_allocator_move_if_noexceptB8ue170006INS_9allocatorI3CarEENS_16reverse_iteratorIPS2_EES6_S6_EET2_RT_T0_T1_S7_, symObjAddr: 0x2860, symBinAddr: 0x100003710, symSize: 0x180 }
  - { offsetInCU: 0x8013, offset: 0x8013, size: 0x8, addend: 0x0, symName: __ZNSt3__14swapB8ue170006IP3CarEENS_9enable_ifIXaasr21is_move_constructibleIT_EE5valuesr18is_move_assignableIS4_EE5valueEvE4typeERS4_S7_, symObjAddr: 0x2A30, symBinAddr: 0x1000038E0, symSize: 0x40 }
  - { offsetInCU: 0x8064, offset: 0x8064, size: 0x8, addend: 0x0, symName: __ZNSt3__122__make_exception_guardB8ue170006INS_29_AllocatorDestroyRangeReverseINS_9allocatorI3CarEENS_16reverse_iteratorIPS3_EEEEEENS_28__exception_guard_exceptionsIT_EESA_, symObjAddr: 0x2B50, symBinAddr: 0x100003A00, symSize: 0x60 }
  - { offsetInCU: 0x8099, offset: 0x8099, size: 0x8, addend: 0x0, symName: __ZNSt3__1neB8ue170006IP3CarS2_EEbRKNS_16reverse_iteratorIT_EERKNS3_IT0_EE, symObjAddr: 0x2BF0, symBinAddr: 0x100003AA0, symSize: 0x40 }
  - { offsetInCU: 0x80E5, offset: 0x80E5, size: 0x8, addend: 0x0, symName: __ZNSt3__112__to_addressB8ue170006INS_16reverse_iteratorIP3CarEEvEEu7__decayIDTclsr19__to_address_helperIT_EE6__callclsr3stdE7declvalIRKS5_EEEEES7_, symObjAddr: 0x2C60, symBinAddr: 0x100003B10, symSize: 0x20 }
  - { offsetInCU: 0x8144, offset: 0x8144, size: 0x8, addend: 0x0, symName: __ZNSt3__119__allocator_destroyB8ue170006INS_9allocatorI3CarEENS_16reverse_iteratorINS4_IPS2_EEEES7_EEvRT_T0_T1_, symObjAddr: 0x3070, symBinAddr: 0x100003F20, symSize: 0x70 }
  - { offsetInCU: 0x81A7, offset: 0x81A7, size: 0x8, addend: 0x0, symName: __ZNSt3__1neB8ue170006INS_16reverse_iteratorIP3CarEES4_EEbRKNS1_IT_EERKNS1_IT0_EE, symObjAddr: 0x3110, symBinAddr: 0x100003FC0, symSize: 0x50 }
  - { offsetInCU: 0x81F3, offset: 0x81F3, size: 0x8, addend: 0x0, symName: __ZNSt3__112__to_addressB8ue170006INS_16reverse_iteratorINS1_IP3CarEEEEvEEu7__decayIDTclsr19__to_address_helperIT_EE6__callclsr3stdE7declvalIRKS6_EEEEES8_, symObjAddr: 0x3190, symBinAddr: 0x100004040, symSize: 0x20 }
  - { offsetInCU: 0x8252, offset: 0x8252, size: 0x8, addend: 0x0, symName: __ZNSt3__119__libcpp_deallocateB8ue170006EPvmm, symObjAddr: 0x3550, symBinAddr: 0x100004400, symSize: 0x30 }
  - { offsetInCU: 0x829A, offset: 0x829A, size: 0x8, addend: 0x0, symName: __ZNSt3__127__do_deallocate_handle_sizeB8ue170006IJEEEvPvmDpT_, symObjAddr: 0x3580, symBinAddr: 0x100004430, symSize: 0x20 }
  - { offsetInCU: 0x82D8, offset: 0x82D8, size: 0x8, addend: 0x0, symName: __ZNSt3__124__libcpp_operator_deleteB8ue170006IJPvEEEvDpT_, symObjAddr: 0x35A0, symBinAddr: 0x100004450, symSize: 0x20 }
  - { offsetInCU: 0x830D, offset: 0x830D, size: 0x8, addend: 0x0, symName: __ZNSt3__1neB8ue170006IP3CarEEbRKNS_11__wrap_iterIT_EES7_, symObjAddr: 0x36C0, symBinAddr: 0x100004570, symSize: 0x30 }
  - { offsetInCU: 0x8350, offset: 0x8350, size: 0x8, addend: 0x0, symName: __ZNSt3__1lsB8ue170006IcNS_11char_traitsIcEENS_9allocatorIcEEEERNS_13basic_ostreamIT_T0_EES9_RKNS_12basic_stringIS6_S7_T1_EE, symObjAddr: 0x3780, symBinAddr: 0x100004630, symSize: 0x50 }
  - { offsetInCU: 0x83A8, offset: 0x83A8, size: 0x8, addend: 0x0, symName: __ZNSt3__1eqB8ue170006IP3CarEEbRKNS_11__wrap_iterIT_EES7_, symObjAddr: 0x3850, symBinAddr: 0x100004700, symSize: 0x40 }
  - { offsetInCU: 0x864F, offset: 0x864F, size: 0x8, addend: 0x0, symName: __ZSt28__throw_bad_array_new_lengthB8ue170006v, symObjAddr: 0x26D0, symBinAddr: 0x100003580, symSize: 0x40 }
  - { offsetInCU: 0x8C88, offset: 0x8C88, size: 0x8, addend: 0x0, symName: __ZNSt3__16vectorI3CarNS_9allocatorIS1_EEE26__swap_out_circular_bufferERNS_14__split_bufferIS1_RS3_EE, symObjAddr: 0x1FC0, symBinAddr: 0x100002E70, symSize: 0x120 }
  - { offsetInCU: 0xB010, offset: 0xB010, size: 0x8, addend: 0x0, symName: _main, symObjAddr: 0x0, symBinAddr: 0x100000EB0, symSize: 0x70 }
  - { offsetInCU: 0xB0BF, offset: 0xB0BF, size: 0x8, addend: 0x0, symName: __ZN16CarDecisionMakerC1Ev, symObjAddr: 0x70, symBinAddr: 0x100000F20, symSize: 0x20 }
  - { offsetInCU: 0xB0EA, offset: 0xB0EA, size: 0x8, addend: 0x0, symName: __ZN16CarDecisionMaker12choiceHolderEv, symObjAddr: 0x90, symBinAddr: 0x100000F40, symSize: 0xA0 }
  - { offsetInCU: 0xB13A, offset: 0xB13A, size: 0x8, addend: 0x0, symName: __ZN16CarDecisionMaker13decisionMakerEv, symObjAddr: 0x130, symBinAddr: 0x100000FE0, symSize: 0x1B0 }
  - { offsetInCU: 0xB1BA, offset: 0xB1BA, size: 0x8, addend: 0x0, symName: __ZN16CarDecisionMakerD1Ev, symObjAddr: 0x2E0, symBinAddr: 0x100001190, symSize: 0x20 }
  - { offsetInCU: 0xB1E5, offset: 0xB1E5, size: 0x8, addend: 0x0, symName: __ZN16CarDecisionMakerC2Ev, symObjAddr: 0x300, symBinAddr: 0x1000011B0, symSize: 0x20 }
  - { offsetInCU: 0xB210, offset: 0xB210, size: 0x8, addend: 0x0, symName: __ZNSt3__16vectorI3CarNS_9allocatorIS1_EEEC1B8ue170006Ev, symObjAddr: 0x320, symBinAddr: 0x1000011D0, symSize: 0x20 }
  - { offsetInCU: 0xB239, offset: 0xB239, size: 0x8, addend: 0x0, symName: __ZNSt3__16vectorI3CarNS_9allocatorIS1_EEEC2B8ue170006Ev, symObjAddr: 0x340, symBinAddr: 0x1000011F0, symSize: 0x50 }
  - { offsetInCU: 0xB26C, offset: 0xB26C, size: 0x8, addend: 0x0, symName: __ZNSt3__117__compressed_pairIP3CarNS_9allocatorIS1_EEEC1B8ue170006IDnNS_18__default_init_tagEEEOT_OT0_, symObjAddr: 0x390, symBinAddr: 0x100001240, symSize: 0x30 }
  - { offsetInCU: 0xB2C3, offset: 0xB2C3, size: 0x8, addend: 0x0, symName: __ZNSt3__117__compressed_pairIP3CarNS_9allocatorIS1_EEEC2B8ue170006IDnNS_18__default_init_tagEEEOT_OT0_, symObjAddr: 0x3D0, symBinAddr: 0x100001280, symSize: 0x40 }
  - { offsetInCU: 0xB31A, offset: 0xB31A, size: 0x8, addend: 0x0, symName: __ZNSt3__122__compressed_pair_elemIP3CarLi0ELb0EEC2B8ue170006IDnvEEOT_, symObjAddr: 0x410, symBinAddr: 0x1000012C0, symSize: 0x20 }
  - { offsetInCU: 0xB35B, offset: 0xB35B, size: 0x8, addend: 0x0, symName: __ZNSt3__122__compressed_pair_elemINS_9allocatorI3CarEELi1ELb1EEC2B8ue170006ENS_18__default_init_tagE, symObjAddr: 0x430, symBinAddr: 0x1000012E0, symSize: 0x20 }
  - { offsetInCU: 0xB38F, offset: 0xB38F, size: 0x8, addend: 0x0, symName: __ZNSt3__19allocatorI3CarEC2B8ue170006Ev, symObjAddr: 0x450, symBinAddr: 0x100001300, symSize: 0x20 }
  - { offsetInCU: 0xB3B8, offset: 0xB3B8, size: 0x8, addend: 0x0, symName: __ZNSt3__116__non_trivial_ifILb1ENS_9allocatorI3CarEEEC2B8ue170006Ev, symObjAddr: 0x470, symBinAddr: 0x100001320, symSize: 0x10 }
  - { offsetInCU: 0xB3E1, offset: 0xB3E1, size: 0x8, addend: 0x0, symName: __ZNSt3__113basic_ostreamIcNS_11char_traitsIcEEElsB8ue170006EPFRS3_S4_E, symObjAddr: 0x4C0, symBinAddr: 0x100001370, symSize: 0x20 }
  - { offsetInCU: 0xB414, offset: 0xB414, size: 0x8, addend: 0x0, symName: __ZN16CarDecisionMaker14getInformationEv, symObjAddr: 0x530, symBinAddr: 0x1000013E0, symSize: 0x160 }
  - { offsetInCU: 0xB447, offset: 0xB447, size: 0x8, addend: 0x0, symName: __ZNSt3__111char_traitsIcE6lengthB8ue170006EPKc, symObjAddr: 0x880, symBinAddr: 0x100001730, symSize: 0x30 }
  - { offsetInCU: 0xB488, offset: 0xB488, size: 0x8, addend: 0x0, symName: __ZNKSt3__113basic_ostreamIcNS_11char_traitsIcEEE6sentrycvbB8ue170006Ev, symObjAddr: 0x8B0, symBinAddr: 0x100001760, symSize: 0x20 }
  - { offsetInCU: 0xB4AD, offset: 0xB4AD, size: 0x8, addend: 0x0, symName: __ZNSt3__119ostreambuf_iteratorIcNS_11char_traitsIcEEEC1B8ue170006ERNS_13basic_ostreamIcS2_EE, symObjAddr: 0xAF0, symBinAddr: 0x1000019A0, symSize: 0x30 }
  - { offsetInCU: 0xB4E3, offset: 0xB4E3, size: 0x8, addend: 0x0, symName: __ZNKSt3__18ios_base5flagsB8ue170006Ev, symObjAddr: 0xB20, symBinAddr: 0x1000019D0, symSize: 0x20 }
  - { offsetInCU: 0xB509, offset: 0xB509, size: 0x8, addend: 0x0, symName: __ZNKSt3__19basic_iosIcNS_11char_traitsIcEEE4fillB8ue170006Ev, symObjAddr: 0xB40, symBinAddr: 0x1000019F0, symSize: 0x70 }
  - { offsetInCU: 0xB530, offset: 0xB530, size: 0x8, addend: 0x0, symName: __ZNKSt3__119ostreambuf_iteratorIcNS_11char_traitsIcEEE6failedB8ue170006Ev, symObjAddr: 0xBB0, symBinAddr: 0x100001A60, symSize: 0x20 }
  - { offsetInCU: 0xB555, offset: 0xB555, size: 0x8, addend: 0x0, symName: __ZNSt3__19basic_iosIcNS_11char_traitsIcEEE8setstateB8ue170006Ej, symObjAddr: 0xBD0, symBinAddr: 0x100001A80, symSize: 0x30 }
  - { offsetInCU: 0xB588, offset: 0xB588, size: 0x8, addend: 0x0, symName: __ZNKSt3__18ios_base5widthB8ue170006Ev, symObjAddr: 0xC00, symBinAddr: 0x100001AB0, symSize: 0x20 }
  - { offsetInCU: 0xB5AF, offset: 0xB5AF, size: 0x8, addend: 0x0, symName: __ZNSt3__115basic_streambufIcNS_11char_traitsIcEEE5sputnB8ue170006EPKcl, symObjAddr: 0xC20, symBinAddr: 0x100001AD0, symSize: 0x30 }
  - { offsetInCU: 0xB5F0, offset: 0xB5F0, size: 0x8, addend: 0x0, symName: __ZNSt3__112basic_stringIcNS_11char_traitsIcEENS_9allocatorIcEEEC1B8ue170006Emc, symObjAddr: 0xC50, symBinAddr: 0x100001B00, symSize: 0x30 }
  - { offsetInCU: 0xB637, offset: 0xB637, size: 0x8, addend: 0x0, symName: __ZNKSt3__112basic_stringIcNS_11char_traitsIcEENS_9allocatorIcEEE4dataB8ue170006Ev, symObjAddr: 0xC80, symBinAddr: 0x100001B30, symSize: 0x30 }
  - { offsetInCU: 0xB65B, offset: 0xB65B, size: 0x8, addend: 0x0, symName: __ZNSt3__18ios_base5widthB8ue170006El, symObjAddr: 0xCB0, symBinAddr: 0x100001B60, symSize: 0x30 }
  - { offsetInCU: 0xB6A0, offset: 0xB6A0, size: 0x8, addend: 0x0, symName: __ZNSt3__112basic_stringIcNS_11char_traitsIcEENS_9allocatorIcEEEC2B8ue170006Emc, symObjAddr: 0xCE0, symBinAddr: 0x100001B90, symSize: 0x50 }
  - { offsetInCU: 0xB6E7, offset: 0xB6E7, size: 0x8, addend: 0x0, symName: __ZNSt3__117__compressed_pairINS_12basic_stringIcNS_11char_traitsIcEENS_9allocatorIcEEE5__repES5_EC1B8ue170006INS_18__default_init_tagESA_EEOT_OT0_, symObjAddr: 0xD30, symBinAddr: 0x100001BE0, symSize: 0x30 }
  - { offsetInCU: 0xB73E, offset: 0xB73E, size: 0x8, addend: 0x0, symName: __ZNSt3__117__compressed_pairINS_12basic_stringIcNS_11char_traitsIcEENS_9allocatorIcEEE5__repES5_EC2B8ue170006INS_18__default_init_tagESA_EEOT_OT0_, symObjAddr: 0xD60, symBinAddr: 0x100001C10, symSize: 0x30 }
  - { offsetInCU: 0xB795, offset: 0xB795, size: 0x8, addend: 0x0, symName: __ZNSt3__122__compressed_pair_elemINS_12basic_stringIcNS_11char_traitsIcEENS_9allocatorIcEEE5__repELi0ELb0EEC2B8ue170006ENS_18__default_init_tagE, symObjAddr: 0xD90, symBinAddr: 0x100001C40, symSize: 0x10 }
  - { offsetInCU: 0xB7C9, offset: 0xB7C9, size: 0x8, addend: 0x0, symName: __ZNSt3__122__compressed_pair_elemINS_9allocatorIcEELi1ELb1EEC2B8ue170006ENS_18__default_init_tagE, symObjAddr: 0xDA0, symBinAddr: 0x100001C50, symSize: 0x20 }
  - { offsetInCU: 0xB7FD, offset: 0xB7FD, size: 0x8, addend: 0x0, symName: __ZNSt3__19allocatorIcEC2B8ue170006Ev, symObjAddr: 0xDC0, symBinAddr: 0x100001C70, symSize: 0x20 }
  - { offsetInCU: 0xB826, offset: 0xB826, size: 0x8, addend: 0x0, symName: __ZNSt3__116__non_trivial_ifILb1ENS_9allocatorIcEEEC2B8ue170006Ev, symObjAddr: 0xDE0, symBinAddr: 0x100001C90, symSize: 0x10 }
  - { offsetInCU: 0xB84F, offset: 0xB84F, size: 0x8, addend: 0x0, symName: __ZNKSt3__112basic_stringIcNS_11char_traitsIcEENS_9allocatorIcEEE13__get_pointerB8ue170006Ev, symObjAddr: 0xE00, symBinAddr: 0x100001CB0, symSize: 0x50 }
  - { offsetInCU: 0xB874, offset: 0xB874, size: 0x8, addend: 0x0, symName: __ZNKSt3__112basic_stringIcNS_11char_traitsIcEENS_9allocatorIcEEE9__is_longB8ue170006Ev, symObjAddr: 0xE50, symBinAddr: 0x100001D00, symSize: 0x30 }
  - { offsetInCU: 0xB899, offset: 0xB899, size: 0x8, addend: 0x0, symName: __ZNKSt3__112basic_stringIcNS_11char_traitsIcEENS_9allocatorIcEEE18__get_long_pointerB8ue170006Ev, symObjAddr: 0xE80, symBinAddr: 0x100001D30, symSize: 0x20 }
  - { offsetInCU: 0xB8BE, offset: 0xB8BE, size: 0x8, addend: 0x0, symName: __ZNKSt3__112basic_stringIcNS_11char_traitsIcEENS_9allocatorIcEEE19__get_short_pointerB8ue170006Ev, symObjAddr: 0xEA0, symBinAddr: 0x100001D50, symSize: 0x30 }
  - { offsetInCU: 0xB8E3, offset: 0xB8E3, size: 0x8, addend: 0x0, symName: __ZNKSt3__117__compressed_pairINS_12basic_stringIcNS_11char_traitsIcEENS_9allocatorIcEEE5__repES5_E5firstB8ue170006Ev, symObjAddr: 0xED0, symBinAddr: 0x100001D80, symSize: 0x20 }
  - { offsetInCU: 0xB908, offset: 0xB908, size: 0x8, addend: 0x0, symName: __ZNKSt3__122__compressed_pair_elemINS_12basic_stringIcNS_11char_traitsIcEENS_9allocatorIcEEE5__repELi0ELb0EE5__getB8ue170006Ev, symObjAddr: 0xEF0, symBinAddr: 0x100001DA0, symSize: 0x10 }
  - { offsetInCU: 0xB92D, offset: 0xB92D, size: 0x8, addend: 0x0, symName: __ZNSt3__114pointer_traitsIPKcE10pointer_toB8ue170006ERS1_, symObjAddr: 0xF00, symBinAddr: 0x100001DB0, symSize: 0x10 }
  - { offsetInCU: 0xB950, offset: 0xB950, size: 0x8, addend: 0x0, symName: __ZNSt3__119ostreambuf_iteratorIcNS_11char_traitsIcEEEC2B8ue170006ERNS_13basic_ostreamIcS2_EE, symObjAddr: 0xF10, symBinAddr: 0x100001DC0, symSize: 0x50 }
  - { offsetInCU: 0xB986, offset: 0xB986, size: 0x8, addend: 0x0, symName: __ZNKSt3__19basic_iosIcNS_11char_traitsIcEEE5rdbufB8ue170006Ev, symObjAddr: 0xF60, symBinAddr: 0x100001E10, symSize: 0x20 }
  - { offsetInCU: 0xB9AD, offset: 0xB9AD, size: 0x8, addend: 0x0, symName: __ZNKSt3__18ios_base5rdbufB8ue170006Ev, symObjAddr: 0xF80, symBinAddr: 0x100001E30, symSize: 0x20 }
  - { offsetInCU: 0xB9D2, offset: 0xB9D2, size: 0x8, addend: 0x0, symName: __ZNSt3__111char_traitsIcE11eq_int_typeB8ue170006Eii, symObjAddr: 0xFA0, symBinAddr: 0x100001E50, symSize: 0x20 }
  - { offsetInCU: 0xBA05, offset: 0xBA05, size: 0x8, addend: 0x0, symName: __ZNSt3__111char_traitsIcE3eofB8ue170006Ev, symObjAddr: 0xFC0, symBinAddr: 0x100001E70, symSize: 0x10 }
  - { offsetInCU: 0xBA18, offset: 0xBA18, size: 0x8, addend: 0x0, symName: __ZNKSt3__19basic_iosIcNS_11char_traitsIcEEE5widenB8ue170006Ec, symObjAddr: 0xFD0, symBinAddr: 0x100001E80, symSize: 0x80 }
  - { offsetInCU: 0xBA7B, offset: 0xBA7B, size: 0x8, addend: 0x0, symName: __ZNKSt3__15ctypeIcE5widenB8ue170006Ec, symObjAddr: 0x1080, symBinAddr: 0x100001F30, symSize: 0x30 }
  - { offsetInCU: 0xBAAE, offset: 0xBAAE, size: 0x8, addend: 0x0, symName: __ZNSt3__18ios_base8setstateB8ue170006Ej, symObjAddr: 0x10B0, symBinAddr: 0x100001F60, symSize: 0x30 }
  - { offsetInCU: 0xBAE9, offset: 0xBAE9, size: 0x8, addend: 0x0, symName: __ZN3CarC1Ev, symObjAddr: 0x1100, symBinAddr: 0x100001FB0, symSize: 0x20 }
  - { offsetInCU: 0xBB14, offset: 0xBB14, size: 0x8, addend: 0x0, symName: __ZN16CarDecisionMaker18calculateTotalCostER3Car, symObjAddr: 0x1400, symBinAddr: 0x1000022B0, symSize: 0x80 }
  - { offsetInCU: 0xBB54, offset: 0xBB54, size: 0x8, addend: 0x0, symName: __ZNSt3__16vectorI3CarNS_9allocatorIS1_EEE9push_backB8ue170006ERKS1_, symObjAddr: 0x1480, symBinAddr: 0x100002330, symSize: 0x60 }
  - { offsetInCU: 0xBB8A, offset: 0xBB8A, size: 0x8, addend: 0x0, symName: __ZN3CarD1Ev, symObjAddr: 0x14E0, symBinAddr: 0x100002390, symSize: 0x20 }
  - { offsetInCU: 0xBBB5, offset: 0xBBB5, size: 0x8, addend: 0x0, symName: __ZN3CarC2Ev, symObjAddr: 0x1500, symBinAddr: 0x1000023B0, symSize: 0x20 }
  - { offsetInCU: 0xBBE0, offset: 0xBBE0, size: 0x8, addend: 0x0, symName: __ZNSt3__112basic_stringIcNS_11char_traitsIcEENS_9allocatorIcEEEC1B8ue170006Ev, symObjAddr: 0x1520, symBinAddr: 0x1000023D0, symSize: 0x20 }
  - { offsetInCU: 0xBC09, offset: 0xBC09, size: 0x8, addend: 0x0, symName: __ZNSt3__112basic_stringIcNS_11char_traitsIcEENS_9allocatorIcEEEC2B8ue170006Ev, symObjAddr: 0x1540, symBinAddr: 0x1000023F0, symSize: 0x50 }
  - { offsetInCU: 0xBC32, offset: 0xBC32, size: 0x8, addend: 0x0, symName: __ZNSt3__112basic_stringIcNS_11char_traitsIcEENS_9allocatorIcEEE14__default_initB8ue170006Ev, symObjAddr: 0x1590, symBinAddr: 0x100002440, symSize: 0x50 }
  - { offsetInCU: 0xBC57, offset: 0xBC57, size: 0x8, addend: 0x0, symName: __ZNSt3__117__compressed_pairINS_12basic_stringIcNS_11char_traitsIcEENS_9allocatorIcEEE5__repES5_E5firstB8ue170006Ev, symObjAddr: 0x15E0, symBinAddr: 0x100002490, symSize: 0x20 }
  - { offsetInCU: 0xBC7C, offset: 0xBC7C, size: 0x8, addend: 0x0, symName: __ZNSt3__122__compressed_pair_elemINS_12basic_stringIcNS_11char_traitsIcEENS_9allocatorIcEEE5__repELi0ELb0EE5__getB8ue170006Ev, symObjAddr: 0x1600, symBinAddr: 0x1000024B0, symSize: 0x10 }
  - { offsetInCU: 0xBD33, offset: 0xBD33, size: 0x8, addend: 0x0, symName: __ZNKSt3__113basic_istreamIcNS_11char_traitsIcEEE6sentrycvbB8ue170006Ev, symObjAddr: 0x1610, symBinAddr: 0x1000024C0, symSize: 0x20 }
  - { offsetInCU: 0xBD57, offset: 0xBD57, size: 0x8, addend: 0x0, symName: __ZNSt3__112basic_stringIcNS_11char_traitsIcEENS_9allocatorIcEEE5clearB8ue170006Ev, symObjAddr: 0x1630, symBinAddr: 0x1000024E0, symSize: 0x80 }
  - { offsetInCU: 0xBD7E, offset: 0xBD7E, size: 0x8, addend: 0x0, symName: __ZNKSt3__112basic_stringIcNS_11char_traitsIcEENS_9allocatorIcEEE8max_sizeB8ue170006Ev, symObjAddr: 0x16B0, symBinAddr: 0x100002560, symSize: 0xA0 }
  - { offsetInCU: 0xBDD0, offset: 0xBDD0, size: 0x8, addend: 0x0, symName: __ZNSt3__114numeric_limitsIlE3maxB8ue170006Ev, symObjAddr: 0x1750, symBinAddr: 0x100002600, symSize: 0x10 }
  - { offsetInCU: 0xBDE4, offset: 0xBDE4, size: 0x8, addend: 0x0, symName: __ZNSt3__115basic_streambufIcNS_11char_traitsIcEEE5sgetcB8ue170006Ev, symObjAddr: 0x1760, symBinAddr: 0x100002610, symSize: 0x50 }
  - { offsetInCU: 0xBE09, offset: 0xBE09, size: 0x8, addend: 0x0, symName: __ZNSt3__111char_traitsIcE12to_char_typeB8ue170006Ei, symObjAddr: 0x17B0, symBinAddr: 0x100002660, symSize: 0x10 }
  - { offsetInCU: 0xBE2C, offset: 0xBE2C, size: 0x8, addend: 0x0, symName: __ZNKSt3__15ctypeIcE2isB8ue170006Ejc, symObjAddr: 0x17C0, symBinAddr: 0x100002670, symSize: 0x70 }
  - { offsetInCU: 0xBE6F, offset: 0xBE6F, size: 0x8, addend: 0x0, symName: __ZNSt3__115basic_streambufIcNS_11char_traitsIcEEE6sbumpcB8ue170006Ev, symObjAddr: 0x1830, symBinAddr: 0x1000026E0, symSize: 0x60 }
  - { offsetInCU: 0xBE94, offset: 0xBE94, size: 0x8, addend: 0x0, symName: __ZNSt3__18ios_base18__setstate_nothrowB8ue170006Ej, symObjAddr: 0x1890, symBinAddr: 0x100002740, symSize: 0x50 }
  - { offsetInCU: 0xBEC8, offset: 0xBEC8, size: 0x8, addend: 0x0, symName: __ZNKSt3__19basic_iosIcNS_11char_traitsIcEEE10exceptionsB8ue170006Ev, symObjAddr: 0x18E0, symBinAddr: 0x100002790, symSize: 0x20 }
  - { offsetInCU: 0xBEED, offset: 0xBEED, size: 0x8, addend: 0x0, symName: __ZNSt3__111char_traitsIcE6assignB8ue170006ERcRKc, symObjAddr: 0x1900, symBinAddr: 0x1000027B0, symSize: 0x20 }
  - { offsetInCU: 0xBF1E, offset: 0xBF1E, size: 0x8, addend: 0x0, symName: __ZNSt3__112basic_stringIcNS_11char_traitsIcEENS_9allocatorIcEEE18__get_long_pointerB8ue170006Ev, symObjAddr: 0x1920, symBinAddr: 0x1000027D0, symSize: 0x20 }
  - { offsetInCU: 0xBF43, offset: 0xBF43, size: 0x8, addend: 0x0, symName: __ZNSt3__112basic_stringIcNS_11char_traitsIcEENS_9allocatorIcEEE15__set_long_sizeB8ue170006Em, symObjAddr: 0x1940, symBinAddr: 0x1000027F0, symSize: 0x30 }
  - { offsetInCU: 0xBF77, offset: 0xBF77, size: 0x8, addend: 0x0, symName: __ZNSt3__112basic_stringIcNS_11char_traitsIcEENS_9allocatorIcEEE19__get_short_pointerB8ue170006Ev, symObjAddr: 0x1970, symBinAddr: 0x100002820, symSize: 0x30 }
  - { offsetInCU: 0xBF9C, offset: 0xBF9C, size: 0x8, addend: 0x0, symName: __ZNSt3__112basic_stringIcNS_11char_traitsIcEENS_9allocatorIcEEE16__set_short_sizeB8ue170006Em, symObjAddr: 0x19A0, symBinAddr: 0x100002850, symSize: 0x50 }
  - { offsetInCU: 0xBFD0, offset: 0xBFD0, size: 0x8, addend: 0x0, symName: __ZNSt3__114pointer_traitsIPcE10pointer_toB8ue170006ERc, symObjAddr: 0x19F0, symBinAddr: 0x1000028A0, symSize: 0x10 }
  - { offsetInCU: 0xBFFD, offset: 0xBFFD, size: 0x8, addend: 0x0, symName: __ZNSt3__116allocator_traitsINS_9allocatorIcEEE8max_sizeB8ue170006IS2_vEEmRKS2_, symObjAddr: 0x1A00, symBinAddr: 0x1000028B0, symSize: 0x20 }
  - { offsetInCU: 0xC02B, offset: 0xC02B, size: 0x8, addend: 0x0, symName: __ZNKSt3__112basic_stringIcNS_11char_traitsIcEENS_9allocatorIcEEE7__allocB8ue170006Ev, symObjAddr: 0x1A20, symBinAddr: 0x1000028D0, symSize: 0x20 }
  - { offsetInCU: 0xC050, offset: 0xC050, size: 0x8, addend: 0x0, symName: __ZNSt3__114numeric_limitsImE3maxB8ue170006Ev, symObjAddr: 0x1A40, symBinAddr: 0x1000028F0, symSize: 0x10 }
  - { offsetInCU: 0xC064, offset: 0xC064, size: 0x8, addend: 0x0, symName: __ZNKSt3__19allocatorIcE8max_sizeB8ue170006Ev, symObjAddr: 0x1A50, symBinAddr: 0x100002900, symSize: 0x20 }
  - { offsetInCU: 0xC089, offset: 0xC089, size: 0x8, addend: 0x0, symName: __ZNKSt3__117__compressed_pairINS_12basic_stringIcNS_11char_traitsIcEENS_9allocatorIcEEE5__repES5_E6secondB8ue170006Ev, symObjAddr: 0x1A70, symBinAddr: 0x100002920, symSize: 0x20 }
  - { offsetInCU: 0xC0AE, offset: 0xC0AE, size: 0x8, addend: 0x0, symName: __ZNKSt3__122__compressed_pair_elemINS_9allocatorIcEELi1ELb1EE5__getB8ue170006Ev, symObjAddr: 0x1A90, symBinAddr: 0x100002940, symSize: 0x10 }
  - { offsetInCU: 0xC0D3, offset: 0xC0D3, size: 0x8, addend: 0x0, symName: __ZNSt3__123__libcpp_numeric_limitsImLb1EE3maxB8ue170006Ev, symObjAddr: 0x1AA0, symBinAddr: 0x100002950, symSize: 0x10 }
  - { offsetInCU: 0xC0E7, offset: 0xC0E7, size: 0x8, addend: 0x0, symName: __ZNSt3__123__libcpp_numeric_limitsIlLb1EE3maxB8ue170006Ev, symObjAddr: 0x1AB0, symBinAddr: 0x100002960, symSize: 0x10 }
  - { offsetInCU: 0xC0FB, offset: 0xC0FB, size: 0x8, addend: 0x0, symName: __ZNSt3__111char_traitsIcE11to_int_typeB8ue170006Ec, symObjAddr: 0x1AC0, symBinAddr: 0x100002970, symSize: 0x10 }
  - { offsetInCU: 0xC11E, offset: 0xC11E, size: 0x8, addend: 0x0, symName: __Z7isasciii, symObjAddr: 0x1AD0, symBinAddr: 0x100002980, symSize: 0x20 }
  - { offsetInCU: 0xC14A, offset: 0xC14A, size: 0x8, addend: 0x0, symName: __ZNKSt3__18ios_base10exceptionsB8ue170006Ev, symObjAddr: 0x1AF0, symBinAddr: 0x1000029A0, symSize: 0x20 }
  - { offsetInCU: 0xC171, offset: 0xC171, size: 0x8, addend: 0x0, symName: __ZNSt3__16vectorI3CarNS_9allocatorIS1_EEE9__end_capB8ue170006Ev, symObjAddr: 0x1B10, symBinAddr: 0x1000029C0, symSize: 0x20 }
  - { offsetInCU: 0xC196, offset: 0xC196, size: 0x8, addend: 0x0, symName: __ZNSt3__16vectorI3CarNS_9allocatorIS1_EEE22__construct_one_at_endB8ue170006IJRKS1_EEEvDpOT_, symObjAddr: 0x1B30, symBinAddr: 0x1000029E0, symSize: 0x90 }
  - { offsetInCU: 0xC1E3, offset: 0xC1E3, size: 0x8, addend: 0x0, symName: __ZNSt3__16vectorI3CarNS_9allocatorIS1_EEE21__push_back_slow_pathIRKS1_EEvOT_, symObjAddr: 0x1BC0, symBinAddr: 0x100002A70, symSize: 0xD0 }
  - { offsetInCU: 0xC240, offset: 0xC240, size: 0x8, addend: 0x0, symName: __ZNSt3__117__compressed_pairIP3CarNS_9allocatorIS1_EEE5firstB8ue170006Ev, symObjAddr: 0x1C90, symBinAddr: 0x100002B40, symSize: 0x20 }
  - { offsetInCU: 0xC265, offset: 0xC265, size: 0x8, addend: 0x0, symName: __ZNSt3__122__compressed_pair_elemIP3CarLi0ELb0EE5__getB8ue170006Ev, symObjAddr: 0x1CB0, symBinAddr: 0x100002B60, symSize: 0x10 }
  - { offsetInCU: 0xC2A3, offset: 0xC2A3, size: 0x8, addend: 0x0, symName: __ZNSt3__16vectorI3CarNS_9allocatorIS1_EEE21_ConstructTransactionC1B8ue170006ERS4_m, symObjAddr: 0x1CC0, symBinAddr: 0x100002B70, symSize: 0x30 }
  - { offsetInCU: 0xC2EA, offset: 0xC2EA, size: 0x8, addend: 0x0, symName: __ZNSt3__116allocator_traitsINS_9allocatorI3CarEEE9constructB8ue170006IS2_JRKS2_EvEEvRS3_PT_DpOT0_, symObjAddr: 0x1CF0, symBinAddr: 0x100002BA0, symSize: 0x30 }
  - { offsetInCU: 0xC341, offset: 0xC341, size: 0x8, addend: 0x0, symName: __ZNSt3__16vectorI3CarNS_9allocatorIS1_EEE7__allocB8ue170006Ev, symObjAddr: 0x1D20, symBinAddr: 0x100002BD0, symSize: 0x20 }
  - { offsetInCU: 0xC366, offset: 0xC366, size: 0x8, addend: 0x0, symName: __ZNSt3__16vectorI3CarNS_9allocatorIS1_EEE21_ConstructTransactionD1B8ue170006Ev, symObjAddr: 0x1D50, symBinAddr: 0x100002C00, symSize: 0x20 }
  - { offsetInCU: 0xC38F, offset: 0xC38F, size: 0x8, addend: 0x0, symName: __ZNSt3__16vectorI3CarNS_9allocatorIS1_EEE21_ConstructTransactionC2B8ue170006ERS4_m, symObjAddr: 0x1D70, symBinAddr: 0x100002C20, symSize: 0x40 }
  - { offsetInCU: 0xC3D6, offset: 0xC3D6, size: 0x8, addend: 0x0, symName: __ZNSt3__19allocatorI3CarE9constructB8ue170006IS1_JRKS1_EEEvPT_DpOT0_, symObjAddr: 0x1DB0, symBinAddr: 0x100002C60, symSize: 0x30 }
  - { offsetInCU: 0xC42B, offset: 0xC42B, size: 0x8, addend: 0x0, symName: __ZN3CarC1ERKS_, symObjAddr: 0x1DE0, symBinAddr: 0x100002C90, symSize: 0x30 }
  - { offsetInCU: 0xC45F, offset: 0xC45F, size: 0x8, addend: 0x0, symName: __ZN3CarC2ERKS_, symObjAddr: 0x1E10, symBinAddr: 0x100002CC0, symSize: 0x50 }
  - { offsetInCU: 0xC493, offset: 0xC493, size: 0x8, addend: 0x0, symName: __ZNSt3__117__compressed_pairIP3CarNS_9allocatorIS1_EEE6secondB8ue170006Ev, symObjAddr: 0x1E60, symBinAddr: 0x100002D10, symSize: 0x20 }
  - { offsetInCU: 0xC4B8, offset: 0xC4B8, size: 0x8, addend: 0x0, symName: __ZNSt3__122__compressed_pair_elemINS_9allocatorI3CarEELi1ELb1EE5__getB8ue170006Ev, symObjAddr: 0x1E80, symBinAddr: 0x100002D30, symSize: 0x10 }
  - { offsetInCU: 0xC4DD, offset: 0xC4DD, size: 0x8, addend: 0x0, symName: __ZNSt3__16vectorI3CarNS_9allocatorIS1_EEE21_ConstructTransactionD2B8ue170006Ev, symObjAddr: 0x1E90, symBinAddr: 0x100002D40, symSize: 0x20 }
  - { offsetInCU: 0xC505, offset: 0xC505, size: 0x8, addend: 0x0, symName: __ZNKSt3__16vectorI3CarNS_9allocatorIS1_EEE11__recommendB8ue170006Em, symObjAddr: 0x1EB0, symBinAddr: 0x100002D60, symSize: 0xA0 }
  - { offsetInCU: 0xC559, offset: 0xC559, size: 0x8, addend: 0x0, symName: __ZNKSt3__16vectorI3CarNS_9allocatorIS1_EEE4sizeB8ue170006Ev, symObjAddr: 0x1F50, symBinAddr: 0x100002E00, symSize: 0x30 }
  - { offsetInCU: 0xC57E, offset: 0xC57E, size: 0x8, addend: 0x0, symName: __ZNSt3__114__split_bufferI3CarRNS_9allocatorIS1_EEEC1EmmS4_, symObjAddr: 0x1F80, symBinAddr: 0x100002E30, symSize: 0x40 }
  - { offsetInCU: 0xC5D3, offset: 0xC5D3, size: 0x8, addend: 0x0, symName: __ZNSt3__114__split_bufferI3CarRNS_9allocatorIS1_EEED1Ev, symObjAddr: 0x20E0, symBinAddr: 0x100002F90, symSize: 0x20 }
  - { offsetInCU: 0xC5FD, offset: 0xC5FD, size: 0x8, addend: 0x0, symName: __ZNKSt3__16vectorI3CarNS_9allocatorIS1_EEE8max_sizeEv, symObjAddr: 0x2100, symBinAddr: 0x100002FB0, symSize: 0x60 }
  - { offsetInCU: 0xC624, offset: 0xC624, size: 0x8, addend: 0x0, symName: __ZNKSt3__16vectorI3CarNS_9allocatorIS1_EEE20__throw_length_errorB8ue170006Ev, symObjAddr: 0x2160, symBinAddr: 0x100003010, symSize: 0x20 }
  - { offsetInCU: 0xC649, offset: 0xC649, size: 0x8, addend: 0x0, symName: __ZNKSt3__16vectorI3CarNS_9allocatorIS1_EEE8capacityB8ue170006Ev, symObjAddr: 0x2180, symBinAddr: 0x100003030, symSize: 0x40 }
  - { offsetInCU: 0xC678, offset: 0xC678, size: 0x8, addend: 0x0, symName: __ZNSt3__116allocator_traitsINS_9allocatorI3CarEEE8max_sizeB8ue170006IS3_vEEmRKS3_, symObjAddr: 0x2220, symBinAddr: 0x1000030D0, symSize: 0x20 }
  - { offsetInCU: 0xC6A6, offset: 0xC6A6, size: 0x8, addend: 0x0, symName: __ZNKSt3__16vectorI3CarNS_9allocatorIS1_EEE7__allocB8ue170006Ev, symObjAddr: 0x2240, symBinAddr: 0x1000030F0, symSize: 0x20 }
  - { offsetInCU: 0xC6DF, offset: 0xC6DF, size: 0x8, addend: 0x0, symName: __ZNKSt3__16__lessIvvEclB8ue170006ImmEEbRKT_RKT0_, symObjAddr: 0x22B0, symBinAddr: 0x100003160, symSize: 0x30 }
  - { offsetInCU: 0xC732, offset: 0xC732, size: 0x8, addend: 0x0, symName: __ZNKSt3__19allocatorI3CarE8max_sizeB8ue170006Ev, symObjAddr: 0x22E0, symBinAddr: 0x100003190, symSize: 0x20 }
  - { offsetInCU: 0xC757, offset: 0xC757, size: 0x8, addend: 0x0, symName: __ZNKSt3__117__compressed_pairIP3CarNS_9allocatorIS1_EEE6secondB8ue170006Ev, symObjAddr: 0x2300, symBinAddr: 0x1000031B0, symSize: 0x20 }
  - { offsetInCU: 0xC77C, offset: 0xC77C, size: 0x8, addend: 0x0, symName: __ZNKSt3__122__compressed_pair_elemINS_9allocatorI3CarEELi1ELb1EE5__getB8ue170006Ev, symObjAddr: 0x2320, symBinAddr: 0x1000031D0, symSize: 0x10 }
  - { offsetInCU: 0xC7A1, offset: 0xC7A1, size: 0x8, addend: 0x0, symName: __ZNSt12length_errorC1B8ue170006EPKc, symObjAddr: 0x23A0, symBinAddr: 0x100003250, symSize: 0x30 }
  - { offsetInCU: 0xC7D8, offset: 0xC7D8, size: 0x8, addend: 0x0, symName: __ZNSt12length_errorC2B8ue170006EPKc, symObjAddr: 0x23D0, symBinAddr: 0x100003280, symSize: 0x40 }
  - { offsetInCU: 0xC80F, offset: 0xC80F, size: 0x8, addend: 0x0, symName: __ZNKSt3__16vectorI3CarNS_9allocatorIS1_EEE9__end_capB8ue170006Ev, symObjAddr: 0x2410, symBinAddr: 0x1000032C0, symSize: 0x20 }
  - { offsetInCU: 0xC834, offset: 0xC834, size: 0x8, addend: 0x0, symName: __ZNKSt3__117__compressed_pairIP3CarNS_9allocatorIS1_EEE5firstB8ue170006Ev, symObjAddr: 0x2430, symBinAddr: 0x1000032E0, symSize: 0x20 }
  - { offsetInCU: 0xC859, offset: 0xC859, size: 0x8, addend: 0x0, symName: __ZNKSt3__122__compressed_pair_elemIP3CarLi0ELb0EE5__getB8ue170006Ev, symObjAddr: 0x2450, symBinAddr: 0x100003300, symSize: 0x10 }
  - { offsetInCU: 0xC87E, offset: 0xC87E, size: 0x8, addend: 0x0, symName: __ZNSt3__114__split_bufferI3CarRNS_9allocatorIS1_EEEC2EmmS4_, symObjAddr: 0x24B0, symBinAddr: 0x100003360, symSize: 0xC0 }
  - { offsetInCU: 0xC8F1, offset: 0xC8F1, size: 0x8, addend: 0x0, symName: __ZNSt3__117__compressed_pairIP3CarRNS_9allocatorIS1_EEEC1B8ue170006IDnS5_EEOT_OT0_, symObjAddr: 0x2570, symBinAddr: 0x100003420, symSize: 0x30 }
  - { offsetInCU: 0xC948, offset: 0xC948, size: 0x8, addend: 0x0, symName: __ZNSt3__114__split_bufferI3CarRNS_9allocatorIS1_EEE7__allocB8ue170006Ev, symObjAddr: 0x25E0, symBinAddr: 0x100003490, symSize: 0x20 }
  - { offsetInCU: 0xC96D, offset: 0xC96D, size: 0x8, addend: 0x0, symName: __ZNSt3__114__split_bufferI3CarRNS_9allocatorIS1_EEE9__end_capB8ue170006Ev, symObjAddr: 0x2600, symBinAddr: 0x1000034B0, symSize: 0x20 }
  - { offsetInCU: 0xC992, offset: 0xC992, size: 0x8, addend: 0x0, symName: __ZNSt3__117__compressed_pairIP3CarRNS_9allocatorIS1_EEEC2B8ue170006IDnS5_EEOT_OT0_, symObjAddr: 0x2620, symBinAddr: 0x1000034D0, symSize: 0x40 }
  - { offsetInCU: 0xC9E9, offset: 0xC9E9, size: 0x8, addend: 0x0, symName: __ZNSt3__122__compressed_pair_elemIRNS_9allocatorI3CarEELi1ELb0EEC2B8ue170006IS4_vEEOT_, symObjAddr: 0x2660, symBinAddr: 0x100003510, symSize: 0x20 }
  - { offsetInCU: 0xCA2A, offset: 0xCA2A, size: 0x8, addend: 0x0, symName: __ZNSt3__19allocatorI3CarE8allocateB8ue170006Em, symObjAddr: 0x2680, symBinAddr: 0x100003530, symSize: 0x50 }
  - { offsetInCU: 0xCA5D, offset: 0xCA5D, size: 0x8, addend: 0x0, symName: __ZNSt3__117__compressed_pairIP3CarRNS_9allocatorIS1_EEE6secondB8ue170006Ev, symObjAddr: 0x2750, symBinAddr: 0x100003600, symSize: 0x20 }
  - { offsetInCU: 0xCA82, offset: 0xCA82, size: 0x8, addend: 0x0, symName: __ZNSt3__122__compressed_pair_elemIRNS_9allocatorI3CarEELi1ELb0EE5__getB8ue170006Ev, symObjAddr: 0x2770, symBinAddr: 0x100003620, symSize: 0x20 }
  - { offsetInCU: 0xCAA7, offset: 0xCAA7, size: 0x8, addend: 0x0, symName: __ZNSt3__117__compressed_pairIP3CarRNS_9allocatorIS1_EEE5firstB8ue170006Ev, symObjAddr: 0x2790, symBinAddr: 0x100003640, symSize: 0x20 }
  - { offsetInCU: 0xCACC, offset: 0xCACC, size: 0x8, addend: 0x0, symName: __ZNKSt3__16vectorI3CarNS_9allocatorIS1_EEE17__annotate_deleteB8ue170006Ev, symObjAddr: 0x27B0, symBinAddr: 0x100003660, symSize: 0xB0 }
  - { offsetInCU: 0xCAF1, offset: 0xCAF1, size: 0x8, addend: 0x0, symName: __ZNSt3__116reverse_iteratorIP3CarEC1B8ue170006ES2_, symObjAddr: 0x29E0, symBinAddr: 0x100003890, symSize: 0x30 }
  - { offsetInCU: 0xCB28, offset: 0xCB28, size: 0x8, addend: 0x0, symName: __ZNKSt3__116reverse_iteratorIP3CarE4baseB8ue170006Ev, symObjAddr: 0x2A10, symBinAddr: 0x1000038C0, symSize: 0x20 }
  - { offsetInCU: 0xCB4D, offset: 0xCB4D, size: 0x8, addend: 0x0, symName: __ZNKSt3__16vectorI3CarNS_9allocatorIS1_EEE14__annotate_newB8ue170006Em, symObjAddr: 0x2A70, symBinAddr: 0x100003920, symSize: 0xA0 }
  - { offsetInCU: 0xCB81, offset: 0xCB81, size: 0x8, addend: 0x0, symName: __ZNKSt3__16vectorI3CarNS_9allocatorIS1_EEE31__annotate_contiguous_containerB8ue170006EPKvS6_S6_S6_, symObjAddr: 0x2B10, symBinAddr: 0x1000039C0, symSize: 0x20 }
  - { offsetInCU: 0xCBD6, offset: 0xCBD6, size: 0x8, addend: 0x0, symName: __ZNKSt3__16vectorI3CarNS_9allocatorIS1_EEE4dataB8ue170006Ev, symObjAddr: 0x2B30, symBinAddr: 0x1000039E0, symSize: 0x20 }
  - { offsetInCU: 0xCBFB, offset: 0xCBFB, size: 0x8, addend: 0x0, symName: __ZNSt3__129_AllocatorDestroyRangeReverseINS_9allocatorI3CarEENS_16reverse_iteratorIPS2_EEEC1B8ue170006ERS3_RS6_S9_, symObjAddr: 0x2BB0, symBinAddr: 0x100003A60, symSize: 0x40 }
  - { offsetInCU: 0xCC56, offset: 0xCC56, size: 0x8, addend: 0x0, symName: __ZNSt3__116allocator_traitsINS_9allocatorI3CarEEE9constructB8ue170006IS2_JS2_EvEEvRS3_PT_DpOT0_, symObjAddr: 0x2C30, symBinAddr: 0x100003AE0, symSize: 0x30 }
  - { offsetInCU: 0xCCAD, offset: 0xCCAD, size: 0x8, addend: 0x0, symName: __ZNKSt3__116reverse_iteratorIP3CarEdeB8ue170006Ev, symObjAddr: 0x2C80, symBinAddr: 0x100003B30, symSize: 0x30 }
  - { offsetInCU: 0xCCE0, offset: 0xCCE0, size: 0x8, addend: 0x0, symName: __ZNSt3__116reverse_iteratorIP3CarEppB8ue170006Ev, symObjAddr: 0x2CB0, symBinAddr: 0x100003B60, symSize: 0x20 }
  - { offsetInCU: 0xCD05, offset: 0xCD05, size: 0x8, addend: 0x0, symName: __ZNSt3__128__exception_guard_exceptionsINS_29_AllocatorDestroyRangeReverseINS_9allocatorI3CarEENS_16reverse_iteratorIPS3_EEEEE10__completeB8ue170006Ev, symObjAddr: 0x2CD0, symBinAddr: 0x100003B80, symSize: 0x20 }
  - { offsetInCU: 0xCD2A, offset: 0xCD2A, size: 0x8, addend: 0x0, symName: __ZNSt3__128__exception_guard_exceptionsINS_29_AllocatorDestroyRangeReverseINS_9allocatorI3CarEENS_16reverse_iteratorIPS3_EEEEED1B8ue170006Ev, symObjAddr: 0x2CF0, symBinAddr: 0x100003BA0, symSize: 0x20 }
  - { offsetInCU: 0xCD53, offset: 0xCD53, size: 0x8, addend: 0x0, symName: __ZNSt3__128__exception_guard_exceptionsINS_29_AllocatorDestroyRangeReverseINS_9allocatorI3CarEENS_16reverse_iteratorIPS3_EEEEEC1B8ue170006ES8_, symObjAddr: 0x2D10, symBinAddr: 0x100003BC0, symSize: 0x40 }
  - { offsetInCU: 0xCD8A, offset: 0xCD8A, size: 0x8, addend: 0x0, symName: __ZNSt3__128__exception_guard_exceptionsINS_29_AllocatorDestroyRangeReverseINS_9allocatorI3CarEENS_16reverse_iteratorIPS3_EEEEEC2B8ue170006ES8_, symObjAddr: 0x2D50, symBinAddr: 0x100003C00, symSize: 0x30 }
  - { offsetInCU: 0xCDC1, offset: 0xCDC1, size: 0x8, addend: 0x0, symName: __ZNSt3__129_AllocatorDestroyRangeReverseINS_9allocatorI3CarEENS_16reverse_iteratorIPS2_EEEC2B8ue170006ERS3_RS6_S9_, symObjAddr: 0x2D80, symBinAddr: 0x100003C30, symSize: 0x40 }
  - { offsetInCU: 0xCE17, offset: 0xCE17, size: 0x8, addend: 0x0, symName: __ZNSt3__19allocatorI3CarE9constructB8ue170006IS1_JS1_EEEvPT_DpOT0_, symObjAddr: 0x2DC0, symBinAddr: 0x100003C70, symSize: 0x30 }
  - { offsetInCU: 0xCE6C, offset: 0xCE6C, size: 0x8, addend: 0x0, symName: __ZN3CarC1EOS_, symObjAddr: 0x2DF0, symBinAddr: 0x100003CA0, symSize: 0x30 }
  - { offsetInCU: 0xCEA0, offset: 0xCEA0, size: 0x8, addend: 0x0, symName: __ZN3CarC2EOS_, symObjAddr: 0x2E20, symBinAddr: 0x100003CD0, symSize: 0x50 }
  - { offsetInCU: 0xCED4, offset: 0xCED4, size: 0x8, addend: 0x0, symName: __ZNSt3__112basic_stringIcNS_11char_traitsIcEENS_9allocatorIcEEEC1B8ue170006EOS5_, symObjAddr: 0x2E70, symBinAddr: 0x100003D20, symSize: 0x30 }
  - { offsetInCU: 0xCF0C, offset: 0xCF0C, size: 0x8, addend: 0x0, symName: __ZNSt3__112basic_stringIcNS_11char_traitsIcEENS_9allocatorIcEEEC2B8ue170006EOS5_, symObjAddr: 0x2EA0, symBinAddr: 0x100003D50, symSize: 0x40 }
  - { offsetInCU: 0xCF49, offset: 0xCF49, size: 0x8, addend: 0x0, symName: __ZNSt3__119__to_address_helperINS_16reverse_iteratorIP3CarEEvE6__callB8ue170006ERKS4_, symObjAddr: 0x2EE0, symBinAddr: 0x100003D90, symSize: 0x40 }
  - { offsetInCU: 0xCF6C, offset: 0xCF6C, size: 0x8, addend: 0x0, symName: __ZNKSt3__116reverse_iteratorIP3CarEptB8ue170006Ev, symObjAddr: 0x2F20, symBinAddr: 0x100003DD0, symSize: 0x20 }
  - { offsetInCU: 0xCF91, offset: 0xCF91, size: 0x8, addend: 0x0, symName: __ZNSt3__128__exception_guard_exceptionsINS_29_AllocatorDestroyRangeReverseINS_9allocatorI3CarEENS_16reverse_iteratorIPS3_EEEEED2B8ue170006Ev, symObjAddr: 0x2F40, symBinAddr: 0x100003DF0, symSize: 0x40 }
  - { offsetInCU: 0xCFBA, offset: 0xCFBA, size: 0x8, addend: 0x0, symName: __ZNKSt3__129_AllocatorDestroyRangeReverseINS_9allocatorI3CarEENS_16reverse_iteratorIPS2_EEEclB8ue170006Ev, symObjAddr: 0x2F80, symBinAddr: 0x100003E30, symSize: 0xF0 }
  - { offsetInCU: 0xCFE0, offset: 0xCFE0, size: 0x8, addend: 0x0, symName: __ZNSt3__116reverse_iteratorINS0_IP3CarEEEC1B8ue170006ES3_, symObjAddr: 0x30E0, symBinAddr: 0x100003F90, symSize: 0x30 }
  - { offsetInCU: 0xD017, offset: 0xD017, size: 0x8, addend: 0x0, symName: __ZNSt3__116allocator_traitsINS_9allocatorI3CarEEE7destroyB8ue170006IS2_vEEvRS3_PT_, symObjAddr: 0x3160, symBinAddr: 0x100004010, symSize: 0x30 }
  - { offsetInCU: 0xD054, offset: 0xD054, size: 0x8, addend: 0x0, symName: __ZNSt3__116reverse_iteratorINS0_IP3CarEEEppB8ue170006Ev, symObjAddr: 0x31B0, symBinAddr: 0x100004060, symSize: 0x30 }
  - { offsetInCU: 0xD079, offset: 0xD079, size: 0x8, addend: 0x0, symName: __ZNKSt3__116reverse_iteratorINS0_IP3CarEEE4baseB8ue170006Ev, symObjAddr: 0x31E0, symBinAddr: 0x100004090, symSize: 0x20 }
  - { offsetInCU: 0xD09E, offset: 0xD09E, size: 0x8, addend: 0x0, symName: __ZNSt3__19allocatorI3CarE7destroyB8ue170006EPS1_, symObjAddr: 0x3200, symBinAddr: 0x1000040B0, symSize: 0x20 }
  - { offsetInCU: 0xD0D6, offset: 0xD0D6, size: 0x8, addend: 0x0, symName: __ZNSt3__119__to_address_helperINS_16reverse_iteratorINS1_IP3CarEEEEvE6__callB8ue170006ERKS5_, symObjAddr: 0x3220, symBinAddr: 0x1000040D0, symSize: 0x40 }
  - { offsetInCU: 0xD0F9, offset: 0xD0F9, size: 0x8, addend: 0x0, symName: __ZNKSt3__116reverse_iteratorINS0_IP3CarEEEptB8ue170006Ev, symObjAddr: 0x3260, symBinAddr: 0x100004110, symSize: 0x20 }
  - { offsetInCU: 0xD11E, offset: 0xD11E, size: 0x8, addend: 0x0, symName: __ZNKSt3__116reverse_iteratorINS0_IP3CarEEEdeB8ue170006Ev, symObjAddr: 0x3280, symBinAddr: 0x100004130, symSize: 0x40 }
  - { offsetInCU: 0xD151, offset: 0xD151, size: 0x8, addend: 0x0, symName: __ZNSt3__116reverse_iteratorIP3CarEmmB8ue170006Ev, symObjAddr: 0x32C0, symBinAddr: 0x100004170, symSize: 0x20 }
  - { offsetInCU: 0xD176, offset: 0xD176, size: 0x8, addend: 0x0, symName: __ZNSt3__116reverse_iteratorINS0_IP3CarEEEC2B8ue170006ES3_, symObjAddr: 0x32E0, symBinAddr: 0x100004190, symSize: 0x40 }
  - { offsetInCU: 0xD1AD, offset: 0xD1AD, size: 0x8, addend: 0x0, symName: __ZNSt3__116reverse_iteratorIP3CarEC2B8ue170006ES2_, symObjAddr: 0x3320, symBinAddr: 0x1000041D0, symSize: 0x30 }
  - { offsetInCU: 0xD1E4, offset: 0xD1E4, size: 0x8, addend: 0x0, symName: __ZNSt3__114__split_bufferI3CarRNS_9allocatorIS1_EEED2Ev, symObjAddr: 0x3350, symBinAddr: 0x100004200, symSize: 0x70 }
  - { offsetInCU: 0xD20F, offset: 0xD20F, size: 0x8, addend: 0x0, symName: __ZNSt3__114__split_bufferI3CarRNS_9allocatorIS1_EEE5clearB8ue170006Ev, symObjAddr: 0x33C0, symBinAddr: 0x100004270, symSize: 0x20 }
  - { offsetInCU: 0xD234, offset: 0xD234, size: 0x8, addend: 0x0, symName: __ZNSt3__116allocator_traitsINS_9allocatorI3CarEEE10deallocateB8ue170006ERS3_PS2_m, symObjAddr: 0x33E0, symBinAddr: 0x100004290, symSize: 0x30 }
  - { offsetInCU: 0xD276, offset: 0xD276, size: 0x8, addend: 0x0, symName: __ZNKSt3__114__split_bufferI3CarRNS_9allocatorIS1_EEE8capacityB8ue170006Ev, symObjAddr: 0x3410, symBinAddr: 0x1000042C0, symSize: 0x40 }
  - { offsetInCU: 0xD29B, offset: 0xD29B, size: 0x8, addend: 0x0, symName: __ZNSt3__114__split_bufferI3CarRNS_9allocatorIS1_EEE17__destruct_at_endB8ue170006EPS1_, symObjAddr: 0x3450, symBinAddr: 0x100004300, symSize: 0x30 }
  - { offsetInCU: 0xD2CD, offset: 0xD2CD, size: 0x8, addend: 0x0, symName: __ZNSt3__114__split_bufferI3CarRNS_9allocatorIS1_EEE17__destruct_at_endB8ue170006EPS1_NS_17integral_constantIbLb0EEE, symObjAddr: 0x3480, symBinAddr: 0x100004330, symSize: 0x80 }
  - { offsetInCU: 0xD30D, offset: 0xD30D, size: 0x8, addend: 0x0, symName: __ZNSt3__19allocatorI3CarE10deallocateB8ue170006EPS1_m, symObjAddr: 0x3500, symBinAddr: 0x1000043B0, symSize: 0x50 }
  - { offsetInCU: 0xD34E, offset: 0xD34E, size: 0x8, addend: 0x0, symName: __ZNKSt3__114__split_bufferI3CarRNS_9allocatorIS1_EEE9__end_capB8ue170006Ev, symObjAddr: 0x35C0, symBinAddr: 0x100004470, symSize: 0x20 }
  - { offsetInCU: 0xD373, offset: 0xD373, size: 0x8, addend: 0x0, symName: __ZNKSt3__117__compressed_pairIP3CarRNS_9allocatorIS1_EEE5firstB8ue170006Ev, symObjAddr: 0x35E0, symBinAddr: 0x100004490, symSize: 0x20 }
  - { offsetInCU: 0xD398, offset: 0xD398, size: 0x8, addend: 0x0, symName: __ZN3CarD2Ev, symObjAddr: 0x3600, symBinAddr: 0x1000044B0, symSize: 0x20 }
  - { offsetInCU: 0xD3C3, offset: 0xD3C3, size: 0x8, addend: 0x0, symName: __ZNKSt3__16vectorI3CarNS_9allocatorIS1_EEE5emptyB8ue170006Ev, symObjAddr: 0x3620, symBinAddr: 0x1000044D0, symSize: 0x20 }
  - { offsetInCU: 0xD3E7, offset: 0xD3E7, size: 0x8, addend: 0x0, symName: __ZNSt3__16vectorI3CarNS_9allocatorIS1_EEEixB8ue170006Em, symObjAddr: 0x3640, symBinAddr: 0x1000044F0, symSize: 0x20 }
  - { offsetInCU: 0xD41C, offset: 0xD41C, size: 0x8, addend: 0x0, symName: __ZNSt3__16vectorI3CarNS_9allocatorIS1_EEE5beginB8ue170006Ev, symObjAddr: 0x3660, symBinAddr: 0x100004510, symSize: 0x30 }
  - { offsetInCU: 0xD442, offset: 0xD442, size: 0x8, addend: 0x0, symName: __ZNSt3__16vectorI3CarNS_9allocatorIS1_EEE3endB8ue170006Ev, symObjAddr: 0x3690, symBinAddr: 0x100004540, symSize: 0x30 }
  - { offsetInCU: 0xD469, offset: 0xD469, size: 0x8, addend: 0x0, symName: __ZNKSt3__111__wrap_iterIP3CarEdeB8ue170006Ev, symObjAddr: 0x36F0, symBinAddr: 0x1000045A0, symSize: 0x20 }
  - { offsetInCU: 0xD48E, offset: 0xD48E, size: 0x8, addend: 0x0, symName: __ZN3CaraSERKS_, symObjAddr: 0x3710, symBinAddr: 0x1000045C0, symSize: 0x50 }
  - { offsetInCU: 0xD4BE, offset: 0xD4BE, size: 0x8, addend: 0x0, symName: __ZNSt3__111__wrap_iterIP3CarEppB8ue170006Ev, symObjAddr: 0x3760, symBinAddr: 0x100004610, symSize: 0x20 }
  - { offsetInCU: 0xD4E3, offset: 0xD4E3, size: 0x8, addend: 0x0, symName: __ZNSt3__16vectorI3CarNS_9allocatorIS1_EEE11__make_iterB8ue170006EPS1_, symObjAddr: 0x37D0, symBinAddr: 0x100004680, symSize: 0x30 }
  - { offsetInCU: 0xD517, offset: 0xD517, size: 0x8, addend: 0x0, symName: __ZNSt3__111__wrap_iterIP3CarEC1B8ue170006ES2_, symObjAddr: 0x3800, symBinAddr: 0x1000046B0, symSize: 0x30 }
  - { offsetInCU: 0xD54E, offset: 0xD54E, size: 0x8, addend: 0x0, symName: __ZNSt3__111__wrap_iterIP3CarEC2B8ue170006ES2_, symObjAddr: 0x3830, symBinAddr: 0x1000046E0, symSize: 0x20 }
  - { offsetInCU: 0xD585, offset: 0xD585, size: 0x8, addend: 0x0, symName: __ZNKSt3__111__wrap_iterIP3CarE4baseB8ue170006Ev, symObjAddr: 0x3890, symBinAddr: 0x100004740, symSize: 0x20 }
  - { offsetInCU: 0xD5AA, offset: 0xD5AA, size: 0x8, addend: 0x0, symName: __ZNKSt3__112basic_stringIcNS_11char_traitsIcEENS_9allocatorIcEEE4sizeB8ue170006Ev, symObjAddr: 0x38B0, symBinAddr: 0x100004760, symSize: 0x50 }
  - { offsetInCU: 0xD5CF, offset: 0xD5CF, size: 0x8, addend: 0x0, symName: __ZNKSt3__112basic_stringIcNS_11char_traitsIcEENS_9allocatorIcEEE15__get_long_sizeB8ue170006Ev, symObjAddr: 0x3900, symBinAddr: 0x1000047B0, symSize: 0x20 }
  - { offsetInCU: 0xD5F4, offset: 0xD5F4, size: 0x8, addend: 0x0, symName: __ZNKSt3__112basic_stringIcNS_11char_traitsIcEENS_9allocatorIcEEE16__get_short_sizeB8ue170006Ev, symObjAddr: 0x3920, symBinAddr: 0x1000047D0, symSize: 0x30 }
  - { offsetInCU: 0xD619, offset: 0xD619, size: 0x8, addend: 0x0, symName: __ZN16CarDecisionMakerD2Ev, symObjAddr: 0x3950, symBinAddr: 0x100004800, symSize: 0x20 }
  - { offsetInCU: 0xD644, offset: 0xD644, size: 0x8, addend: 0x0, symName: __ZNSt3__16vectorI3CarNS_9allocatorIS1_EEED1B8ue170006Ev, symObjAddr: 0x3970, symBinAddr: 0x100004820, symSize: 0x20 }
  - { offsetInCU: 0xD66D, offset: 0xD66D, size: 0x8, addend: 0x0, symName: __ZNSt3__16vectorI3CarNS_9allocatorIS1_EEED2B8ue170006Ev, symObjAddr: 0x3990, symBinAddr: 0x100004840, symSize: 0x40 }
  - { offsetInCU: 0xD696, offset: 0xD696, size: 0x8, addend: 0x0, symName: __ZNSt3__16vectorI3CarNS_9allocatorIS1_EEE16__destroy_vectorC1B8ue170006ERS4_, symObjAddr: 0x39D0, symBinAddr: 0x100004880, symSize: 0x30 }
  - { offsetInCU: 0xD6CE, offset: 0xD6CE, size: 0x8, addend: 0x0, symName: __ZNSt3__16vectorI3CarNS_9allocatorIS1_EEE16__destroy_vectorclB8ue170006Ev, symObjAddr: 0x3A00, symBinAddr: 0x1000048B0, symSize: 0x80 }
  - { offsetInCU: 0xD6F3, offset: 0xD6F3, size: 0x8, addend: 0x0, symName: __ZNSt3__16vectorI3CarNS_9allocatorIS1_EEE16__destroy_vectorC2B8ue170006ERS4_, symObjAddr: 0x3A80, symBinAddr: 0x100004930, symSize: 0x20 }
  - { offsetInCU: 0xD72B, offset: 0xD72B, size: 0x8, addend: 0x0, symName: __ZNSt3__16vectorI3CarNS_9allocatorIS1_EEE7__clearB8ue170006Ev, symObjAddr: 0x3AA0, symBinAddr: 0x100004950, symSize: 0x20 }
  - { offsetInCU: 0xD750, offset: 0xD750, size: 0x8, addend: 0x0, symName: __ZNSt3__16vectorI3CarNS_9allocatorIS1_EEE22__base_destruct_at_endB8ue170006EPS1_, symObjAddr: 0x3AC0, symBinAddr: 0x100004970, symSize: 0x7C }
...
